; Function Attrs: mustprogress nofree norecurse nosync nounwind sspstrong willreturn memory(argmem: readwrite) uwtable
define internal void @sdhci_set_readonly(ptr noundef captures(none) %dev, i1 noundef zeroext %level) #8 {
entry:
  %prnsts = getelementptr inbounds nuw i8, ptr %dev, i64 3176
  %0 = load i32, ptr %prnsts, align 8
  %and = and i32 %0, -524289
  %masksel = select i1 %level, i32 0, i32 524288
  %or.sink = or disjoint i32 %and, %masksel
  store i32 %or.sink, ptr %prnsts, align 8
  ret void
}